; ModuleID = 'source-C-CXX/8/1130.c'
source_filename = "source-C-CXX/8/1130.c"
target datalayout = "e-m:e-p270:32:32-p271:32:32-p272:64:64-i64:64-f80:128-n8:16:32:64-S128"
target triple = "x86_64-pc-linux-gnu"

@.str = private unnamed_addr constant [4 x i8] c"%d\0A\00", align 1
@.str.1 = private unnamed_addr constant [6 x i8] c"%s %d\00", align 1

; Function Attrs: nofree nounwind sspstrong uwtable
define dso_local i32 @main() local_unnamed_addr #0 {
  %1 = alloca i32, align 4
  %2 = alloca [100 x i32], align 16
  %3 = alloca [100 x [100 x i8]], align 16
  %4 = alloca [100 x i8], align 16
  %5 = bitcast i32* %1 to i8*
  call void @llvm.lifetime.start.p0i8(i64 4, i8* nonnull %5) #5
  %6 = bitcast [100 x i32]* %2 to i8*
  call void @llvm.lifetime.start.p0i8(i64 400, i8* nonnull %6) #5
  %7 = getelementptr inbounds [100 x [100 x i8]], [100 x [100 x i8]]* %3, i64 0, i64 0, i64 0
  call void @llvm.lifetime.start.p0i8(i64 10000, i8* nonnull %7) #5
  %8 = getelementptr inbounds [100 x i8], [100 x i8]* %4, i64 0, i64 0
  call void @llvm.lifetime.start.p0i8(i64 100, i8* nonnull %8) #5
  %9 = call i32 (i8*, ...) @__isoc99_scanf(i8* getelementptr inbounds ([4 x i8], [4 x i8]* @.str, i64 0, i64 0), i32* nonnull %1)
  %10 = load i32, i32* %1, align 4, !tbaa !5
  %11 = icmp sgt i32 %10, 0
  br i1 %11, label %14, label %74

12:                                               ; preds = %14
  %13 = icmp sgt i32 %20, 1
  br i1 %13, label %23, label %30

14:                                               ; preds = %0, %14
  %15 = phi i64 [ %19, %14 ], [ 0, %0 ]
  %16 = getelementptr inbounds [100 x [100 x i8]], [100 x [100 x i8]]* %3, i64 0, i64 %15, i64 0
  %17 = getelementptr inbounds [100 x i32], [100 x i32]* %2, i64 0, i64 %15
  %18 = call i32 (i8*, ...) @__isoc99_scanf(i8* getelementptr inbounds ([6 x i8], [6 x i8]* @.str.1, i64 0, i64 0), i8* nonnull %16, i32* nonnull %17)
  %19 = add nuw nsw i64 %15, 1
  %20 = load i32, i32* %1, align 4, !tbaa !5
  %21 = sext i32 %20 to i64
  %22 = icmp slt i64 %19, %21
  br i1 %22, label %14, label %12, !llvm.loop !9

23:                                               ; preds = %12, %63
  %24 = phi i32 [ %26, %63 ], [ %20, %12 ]
  %25 = phi i32 [ %64, %63 ], [ 1, %12 ]
  %26 = add i32 %24, -1
  %27 = icmp sgt i32 %20, %25
  br i1 %27, label %28, label %63

28:                                               ; preds = %23
  %29 = zext i32 %26 to i64
  br label %32

30:                                               ; preds = %63, %12
  %31 = icmp sgt i32 %20, 0
  br i1 %31, label %66, label %74

32:                                               ; preds = %28, %60
  %33 = phi i64 [ 0, %28 ], [ %61, %60 ]
  %34 = getelementptr inbounds [100 x i32], [100 x i32]* %2, i64 0, i64 %33
  %35 = load i32, i32* %34, align 4, !tbaa !5
  %36 = icmp sgt i32 %35, 59
  %37 = add nuw nsw i64 %33, 1
  %38 = getelementptr inbounds [100 x i32], [100 x i32]* %2, i64 0, i64 %37
  %39 = load i32, i32* %38, align 4, !tbaa !5
  %40 = icmp sgt i32 %39, 59
  br i1 %36, label %41, label %49

41:                                               ; preds = %32
  %42 = icmp slt i32 %35, %39
  %43 = select i1 %40, i1 %42, i1 false
  br i1 %43, label %44, label %60

44:                                               ; preds = %41
  %45 = getelementptr inbounds [100 x [100 x i8]], [100 x [100 x i8]]* %3, i64 0, i64 %37, i64 0
  %46 = call i8* @strcpy(i8* noundef nonnull %8, i8* noundef nonnull %45) #5
  %47 = getelementptr inbounds [100 x [100 x i8]], [100 x [100 x i8]]* %3, i64 0, i64 %33, i64 0
  %48 = call i8* @strcpy(i8* noundef nonnull %45, i8* noundef nonnull %47) #5
  br label %56

49:                                               ; preds = %32
  br i1 %40, label %50, label %60

50:                                               ; preds = %49
  %51 = getelementptr inbounds [100 x i32], [100 x i32]* %2, i64 0, i64 %37
  %52 = getelementptr inbounds [100 x [100 x i8]], [100 x [100 x i8]]* %3, i64 0, i64 %37, i64 0
  %53 = call i8* @strcpy(i8* noundef nonnull %8, i8* noundef nonnull %52) #5
  %54 = getelementptr inbounds [100 x [100 x i8]], [100 x [100 x i8]]* %3, i64 0, i64 %33, i64 0
  %55 = call i8* @strcpy(i8* noundef nonnull %52, i8* noundef nonnull %54) #5
  br label %56

56:                                               ; preds = %50, %44
  %57 = phi i8* [ %47, %44 ], [ %54, %50 ]
  %58 = phi i32* [ %38, %44 ], [ %51, %50 ]
  %59 = call i8* @strcpy(i8* noundef nonnull %57, i8* noundef nonnull %8) #5
  store i32 %35, i32* %58, align 4, !tbaa !5
  store i32 %39, i32* %34, align 4, !tbaa !5
  br label %60

60:                                               ; preds = %56, %41, %49
  %61 = add nuw nsw i64 %33, 1
  %62 = icmp eq i64 %61, %29
  br i1 %62, label %63, label %32, !llvm.loop !11

63:                                               ; preds = %60, %23
  %64 = add nuw nsw i32 %25, 1
  %65 = icmp eq i32 %64, %20
  br i1 %65, label %30, label %23, !llvm.loop !12

66:                                               ; preds = %30, %66
  %67 = phi i64 [ %70, %66 ], [ 0, %30 ]
  %68 = getelementptr inbounds [100 x [100 x i8]], [100 x [100 x i8]]* %3, i64 0, i64 %67, i64 0
  %69 = call i32 @puts(i8* nonnull %68)
  %70 = add nuw nsw i64 %67, 1
  %71 = load i32, i32* %1, align 4, !tbaa !5
  %72 = sext i32 %71 to i64
  %73 = icmp slt i64 %70, %72
  br i1 %73, label %66, label %74, !llvm.loop !13

74:                                               ; preds = %66, %0, %30
  call void @llvm.lifetime.end.p0i8(i64 100, i8* nonnull %8) #5
  call void @llvm.lifetime.end.p0i8(i64 10000, i8* nonnull %7) #5
  call void @llvm.lifetime.end.p0i8(i64 400, i8* nonnull %6) #5
  call void @llvm.lifetime.end.p0i8(i64 4, i8* nonnull %5) #5
  ret i32 0
}

; Function Attrs: argmemonly mustprogress nofree nosync nounwind willreturn
declare void @llvm.lifetime.start.p0i8(i64 immarg, i8* nocapture) #1

; Function Attrs: nofree nounwind
declare noundef i32 @__isoc99_scanf(i8* nocapture noundef readonly, ...) local_unnamed_addr #2

; Function Attrs: argmemonly mustprogress nofree nounwind willreturn
declare i8* @strcpy(i8* noalias returned writeonly, i8* noalias nocapture readonly) local_unnamed_addr #3

; Function Attrs: argmemonly mustprogress nofree nosync nounwind willreturn
declare void @llvm.lifetime.end.p0i8(i64 immarg, i8* nocapture) #1

; Function Attrs: nofree nounwind
declare noundef i32 @puts(i8* nocapture noundef readonly) local_unnamed_addr #4


!llvm.module.flags = !{!0, !1, !2, !3}
!llvm.ident = !{!4}

!0 = !{i32 1, !"wchar_size", i32 4}
!1 = !{i32 7, !"PIC Level", i32 2}
!2 = !{i32 7, !"PIE Level", i32 2}
!3 = !{i32 7, !"uwtable", i32 1}
!4 = !{!"clang version 13.0.0"}
!5 = !{!6, !6, i64 0}
!6 = !{!"int", !7, i64 0}
!7 = !{!"omnipotent char", !8, i64 0}
!8 = !{!"Simple C/C++ TBAA"}
!9 = distinct !{!9, !10}
!10 = !{!"llvm.loop.mustprogress"}
!11 = distinct !{!11, !10}
!12 = distinct !{!12, !10}
!13 = distinct !{!13, !10}
